target datalayout = "e-m:e-p270:32:32-p271:32:32-p272:64:64-i64:64-i128:128-f80:128-n8:16:32:64-S128"
target triple = "x86_64-pc-linux-gnu"

%"class.algebraic_numbers::manager" = type <{ ptr, ptr, i8, [7 x i8] }>
%class.mpbq = type <{ %class.mpz, i32, [4 x i8] }>
%class.mpz = type { i32, i8, ptr }
%"struct.algebraic_numbers::algebraic_cell" = type <{ i32, [4 x i8], ptr, %"class.basic_interval_manager<mpbq_manager, false>::interval", i32, [4 x i8] }>
%"class.basic_interval_manager<mpbq_manager, false>::interval" = type { %class.mpbq, %class.mpbq }
%"class.algebraic_numbers::anum" = type { ptr }

; Function Attrs: mustprogress nounwind uwtable
define linkonce_odr hidden noundef zeroext i1 @_ZNK17algebraic_numbers4anum7is_nullEv(ptr noundef nonnull align 8 dereferenceable(8) %0) #5 comdat align 2 {
  %2 = alloca ptr, align 8
  store ptr %0, ptr %2, align 8, !tbaa !65
  %3 = load ptr, ptr %2, align 8
  %4 = getelementptr inbounds nuw %"class.algebraic_numbers::anum", ptr %3, i32 0, i32 0
  %5 = load ptr, ptr %4, align 8, !tbaa !124
  %6 = icmp eq ptr %5, null
  ret i1 %6
}

; Function Attrs: mustprogress nounwind uwtable
define linkonce_odr hidden noundef ptr @_ZNK17algebraic_numbers4anum12to_algebraicEv(ptr noundef nonnull align 8 dereferenceable(8) %0) #5 comdat align 2 {
  %2 = alloca ptr, align 8
  store ptr %0, ptr %2, align 8, !tbaa !65
  %3 = load ptr, ptr %2, align 8
  %4 = getelementptr inbounds nuw %"class.algebraic_numbers::anum", ptr %3, i32 0, i32 0
  %5 = load ptr, ptr %4, align 8, !tbaa !124
  %6 = ptrtoint ptr %5 to i64
  %7 = and i64 %6, -8
  %8 = inttoptr i64 %7 to ptr
  ret ptr %8
}

; Function Attrs: mustprogress nounwind uwtable
define linkonce_odr hidden noundef zeroext i1 @_ZNK17algebraic_numbers4anum8is_basicEv(ptr noundef nonnull align 8 dereferenceable(8) %0) #5 comdat align 2 {
  %2 = alloca ptr, align 8
  store ptr %0, ptr %2, align 8, !tbaa !65
  %3 = load ptr, ptr %2, align 8
  %4 = getelementptr inbounds nuw %"class.algebraic_numbers::anum", ptr %3, i32 0, i32 0
  %5 = load ptr, ptr %4, align 8, !tbaa !124
  %6 = ptrtoint ptr %5 to i64
  %7 = and i64 %6, 7
  %8 = icmp eq i64 %7, 0
  ret i1 %8
}

; Function Attrs: mustprogress nounwind uwtable
define linkonce_odr hidden noundef zeroext i1 @_ZN17algebraic_numbers7manager3imp7is_zeroERKNS_4anumE(ptr noundef nonnull align 8 dereferenceable(936) %0, ptr noundef nonnull align 8 dereferenceable(8) %1) #5 comdat align 2 {
  %3 = alloca ptr, align 8
  %4 = alloca ptr, align 8
  store ptr %0, ptr %3, align 8, !tbaa !24
  store ptr %1, ptr %4, align 8, !tbaa !65
  %5 = load ptr, ptr %4, align 8, !tbaa !65
  %6 = call noundef zeroext i1 @_ZNK17algebraic_numbers4anum7is_nullEv(ptr noundef nonnull align 8 dereferenceable(8) %5)
  ret i1 %6
}

; Function Attrs: mustprogress uwtable
define linkonce_odr hidden noundef i32 @_ZN17algebraic_numbers7manager3imp6degreeERKNS_4anumE(ptr noundef nonnull align 8 dereferenceable(936) %0, ptr noundef nonnull align 8 dereferenceable(8) %1) #4 comdat align 2 {
  %3 = alloca i32, align 4
  %4 = alloca ptr, align 8
  %5 = alloca ptr, align 8
  store ptr %0, ptr %4, align 8, !tbaa !24
  store ptr %1, ptr %5, align 8, !tbaa !65
  %6 = load ptr, ptr %4, align 8
  %7 = load ptr, ptr %5, align 8, !tbaa !65
  %8 = call noundef zeroext i1 @_ZN17algebraic_numbers7manager3imp7is_zeroERKNS_4anumE(ptr noundef nonnull align 8 dereferenceable(936) %6, ptr noundef nonnull align 8 dereferenceable(8) %7)
  br i1 %8, label %9, label %10

9:                                                ; preds = %2
  store i32 0, ptr %3, align 4
  br label %20

10:                                               ; preds = %2
  %11 = load ptr, ptr %5, align 8, !tbaa !65
  %12 = call noundef zeroext i1 @_ZNK17algebraic_numbers4anum8is_basicEv(ptr noundef nonnull align 8 dereferenceable(8) %11)
  br i1 %12, label %13, label %14

13:                                               ; preds = %10
  store i32 1, ptr %3, align 4
  br label %20

14:                                               ; preds = %10
  %15 = load ptr, ptr %5, align 8, !tbaa !65
  %16 = call noundef ptr @_ZNK17algebraic_numbers4anum12to_algebraicEv(ptr noundef nonnull align 8 dereferenceable(8) %15)
  %17 = getelementptr inbounds nuw %"struct.algebraic_numbers::algebraic_cell", ptr %16, i32 0, i32 0
  %18 = load i32, ptr %17, align 8, !tbaa !72
  %19 = sub i32 %18, 1
  store i32 %19, ptr %3, align 4
  br label %20

20:                                               ; preds = %14, %13, %9
  %21 = load i32, ptr %3, align 4
  ret i32 %21
}

; Function Attrs: mustprogress uwtable
define hidden noundef i32 @_ZN17algebraic_numbers7manager6degreeERKNS_4anumE(ptr noundef nonnull align 8 dereferenceable(17) %0, ptr noundef nonnull align 8 dereferenceable(8) %1) #4 align 2 {
  %3 = alloca ptr, align 8
  %4 = alloca ptr, align 8
  store ptr %0, ptr %3, align 8, !tbaa !8
  store ptr %1, ptr %4, align 8, !tbaa !65
  %5 = load ptr, ptr %3, align 8
  %6 = getelementptr inbounds nuw %"class.algebraic_numbers::manager", ptr %5, i32 0, i32 0
  %7 = load ptr, ptr %6, align 8, !tbaa !23
  %8 = load ptr, ptr %4, align 8, !tbaa !65
  %9 = call noundef i32 @_ZN17algebraic_numbers7manager3imp6degreeERKNS_4anumE(ptr noundef nonnull align 8 dereferenceable(936) %7, ptr noundef nonnull align 8 dereferenceable(8) %8)
  ret i32 %9
}