; Function Attrs: mustprogress nofree norecurse nosync nounwind willreturn memory(read, inaccessiblemem: none) uwtable
define hidden noundef i32 @_ZN17algebraic_numbers7manager6degreeERKNS_4anumE(ptr noundef nonnull readonly align 8 captures(none) dereferenceable(17) %0, ptr noundef nonnull readonly align 8 captures(none) dereferenceable(8) %1) local_unnamed_addr #8 align 2 {
  %3 = load ptr, ptr %1, align 8, !tbaa !66
  %4 = icmp eq ptr %3, null
  br i1 %4, label %_ZN17algebraic_numbers7manager3imp6degreeERKNS_4anumE.exit, label %5

5:                                                ; preds = %2
  %6 = ptrtoint ptr %3 to i64
  %7 = and i64 %6, 7
  %8 = icmp eq i64 %7, 0
  br i1 %8, label %_ZN17algebraic_numbers7manager3imp6degreeERKNS_4anumE.exit, label %9

9:                                                ; preds = %5
  %10 = and i64 %6, -8
  %11 = inttoptr i64 %10 to ptr
  %12 = load i32, ptr %11, align 8, !tbaa !72
  %13 = add i32 %12, -1
  br label %_ZN17algebraic_numbers7manager3imp6degreeERKNS_4anumE.exit

_ZN17algebraic_numbers7manager3imp6degreeERKNS_4anumE.exit: ; preds = %2, %5, %9
  %.0.i = phi i32 [ %13, %9 ], [ 0, %2 ], [ 1, %5 ]
  ret i32 %.0.i
}